target datalayout = "e-m:e-p270:32:32-p271:32:32-p272:64:64-i64:64-i128:128-f80:128-n8:16:32:64-S128"
target triple = "x86_64-pc-linux-gnu"

%"class.base::BasicStringPiece.0" = type { ptr, i64 }

@_ZN4base16kWhitespaceUTF16E = external constant [0 x i16], align 2

; Function Attrs: mustprogress uwtable
define available_externally { ptr, i64 } @_ZNK4base16BasicStringPieceINSt7__cxx1112basic_stringItNS_20string16_char_traitsESaItEEEE6substrEmm(ptr noundef nonnull align 8 dereferenceable(16) %0, i64 noundef %1, i64 noundef %2) #3 align 2 {
  %4 = alloca %"class.base::BasicStringPiece.0", align 8
  %5 = alloca ptr, align 8
  %6 = alloca i64, align 8
  %7 = alloca i64, align 8
  store ptr %0, ptr %5, align 8, !tbaa !38
  store i64 %1, ptr %6, align 8, !tbaa !20
  store i64 %2, ptr %7, align 8, !tbaa !20
  %8 = load ptr, ptr %5, align 8
  %9 = load i64, ptr %6, align 8, !tbaa !20
  %10 = load i64, ptr %7, align 8, !tbaa !20
  %11 = call { ptr, i64 } @_ZN4base8internal6substrERKNS_16BasicStringPieceINSt7__cxx1112basic_stringItNS_20string16_char_traitsESaItEEEEEmm(ptr noundef nonnull align 8 dereferenceable(16) %8, i64 noundef %9, i64 noundef %10)
  %12 = getelementptr inbounds nuw { ptr, i64 }, ptr %4, i32 0, i32 0
  %13 = extractvalue { ptr, i64 } %11, 0
  store ptr %13, ptr %12, align 8
  %14 = getelementptr inbounds nuw { ptr, i64 }, ptr %4, i32 0, i32 1
  %15 = extractvalue { ptr, i64 } %11, 1
  store i64 %15, ptr %14, align 8
  %16 = load { ptr, i64 }, ptr %4, align 8
  ret { ptr, i64 } %16
}

; Function Attrs: mustprogress nounwind uwtable
define available_externally noundef i64 @_ZNK4base16BasicStringPieceINSt7__cxx1112basic_stringItNS_20string16_char_traitsESaItEEEE4sizeEv(ptr noundef nonnull align 8 dereferenceable(16) %0) #0 align 2 {
  %2 = alloca ptr, align 8
  store ptr %0, ptr %2, align 8, !tbaa !38
  %3 = load ptr, ptr %2, align 8
  %4 = getelementptr inbounds nuw %"class.base::BasicStringPiece.0", ptr %3, i32 0, i32 1
  %5 = load i64, ptr %4, align 8, !tbaa !40
  ret i64 %5
}

; Function Attrs: mustprogress uwtable
define available_externally noundef i64 @_ZNK4base16BasicStringPieceINSt7__cxx1112basic_stringItNS_20string16_char_traitsESaItEEEE16find_last_not_ofERKS6_m(ptr noundef nonnull align 8 dereferenceable(16) %0, ptr noundef nonnull align 8 dereferenceable(16) %1, i64 noundef %2) #3 align 2 {
  %4 = alloca ptr, align 8
  %5 = alloca ptr, align 8
  %6 = alloca i64, align 8
  store ptr %0, ptr %4, align 8, !tbaa !38
  store ptr %1, ptr %5, align 8, !tbaa !38
  store i64 %2, ptr %6, align 8, !tbaa !20
  %7 = load ptr, ptr %4, align 8
  %8 = load ptr, ptr %5, align 8, !tbaa !38
  %9 = load i64, ptr %6, align 8, !tbaa !20
  %10 = call noundef i64 @_ZN4base8internal16find_last_not_ofERKNS_16BasicStringPieceINSt7__cxx1112basic_stringItNS_20string16_char_traitsESaItEEEEES9_m(ptr noundef nonnull align 8 dereferenceable(16) %7, ptr noundef nonnull align 8 dereferenceable(16) %8, i64 noundef %9)
  ret i64 %10
}

; Function Attrs: mustprogress uwtable
define available_externally noundef i64 @_ZNK4base16BasicStringPieceINSt7__cxx1112basic_stringItNS_20string16_char_traitsESaItEEEE17find_first_not_ofERKS6_m(ptr noundef nonnull align 8 dereferenceable(16) %0, ptr noundef nonnull align 8 dereferenceable(16) %1, i64 noundef %2) #3 align 2 {
  %4 = alloca ptr, align 8
  %5 = alloca ptr, align 8
  %6 = alloca i64, align 8
  store ptr %0, ptr %4, align 8, !tbaa !38
  store ptr %1, ptr %5, align 8, !tbaa !38
  store i64 %2, ptr %6, align 8, !tbaa !20
  %7 = load ptr, ptr %4, align 8
  %8 = load ptr, ptr %5, align 8, !tbaa !38
  %9 = load i64, ptr %6, align 8, !tbaa !20
  %10 = call noundef i64 @_ZN4base8internal17find_first_not_ofERKNS_16BasicStringPieceINSt7__cxx1112basic_stringItNS_20string16_char_traitsESaItEEEEES9_m(ptr noundef nonnull align 8 dereferenceable(16) %7, ptr noundef nonnull align 8 dereferenceable(16) %8, i64 noundef %9)
  ret i64 %10
}

; Function Attrs: mustprogress uwtable
define linkonce_odr noundef i64 @_ZN4base20string16_char_traits6lengthEPKt(ptr noundef %0) #3 comdat align 2 {
  %2 = alloca ptr, align 8
  store ptr %0, ptr %2, align 8, !tbaa !24
  %3 = load ptr, ptr %2, align 8, !tbaa !24
  %4 = call noundef i64 @_ZN4base6c16lenEPKt(ptr noundef %3)
  ret i64 %4
}

; Function Attrs: mustprogress uwtable
define linkonce_odr { ptr, i64 } @_ZN4base16TrimStringPieceTINSt7__cxx1112basic_stringItNS_20string16_char_traitsESaItEEEEENS_16BasicStringPieceIT_EES8_S8_NS_13TrimPositionsE(ptr %0, i64 %1, ptr %2, i64 %3, i32 noundef %4) #3 comdat {
  %6 = alloca %"class.base::BasicStringPiece.0", align 8
  %7 = alloca %"class.base::BasicStringPiece.0", align 8
  %8 = alloca %"class.base::BasicStringPiece.0", align 8
  %9 = alloca i32, align 4
  %10 = alloca i64, align 8
  %11 = alloca i64, align 8
  %12 = getelementptr inbounds nuw { ptr, i64 }, ptr %7, i32 0, i32 0
  store ptr %0, ptr %12, align 8
  %13 = getelementptr inbounds nuw { ptr, i64 }, ptr %7, i32 0, i32 1
  store i64 %1, ptr %13, align 8
  %14 = getelementptr inbounds nuw { ptr, i64 }, ptr %8, i32 0, i32 0
  store ptr %2, ptr %14, align 8
  %15 = getelementptr inbounds nuw { ptr, i64 }, ptr %8, i32 0, i32 1
  store i64 %3, ptr %15, align 8
  store i32 %4, ptr %9, align 4, !tbaa !50
  call void @llvm.lifetime.start.p0(i64 8, ptr %10) #17
  %16 = load i32, ptr %9, align 4, !tbaa !50
  %17 = and i32 %16, 1
  %18 = icmp ne i32 %17, 0
  br i1 %18, label %19, label %21

19:                                               ; preds = %5
  %20 = call noundef i64 @_ZNK4base16BasicStringPieceINSt7__cxx1112basic_stringItNS_20string16_char_traitsESaItEEEE17find_first_not_ofERKS6_m(ptr noundef nonnull align 8 dereferenceable(16) %7, ptr noundef nonnull align 8 dereferenceable(16) %8, i64 noundef 0)
  br label %22

21:                                               ; preds = %5
  br label %22

22:                                               ; preds = %21, %19
  %23 = phi i64 [ %20, %19 ], [ 0, %21 ]
  store i64 %23, ptr %10, align 8, !tbaa !20
  call void @llvm.lifetime.start.p0(i64 8, ptr %11) #17
  %24 = load i32, ptr %9, align 4, !tbaa !50
  %25 = and i32 %24, 2
  %26 = icmp ne i32 %25, 0
  br i1 %26, label %27, label %30

27:                                               ; preds = %22
  %28 = call noundef i64 @_ZNK4base16BasicStringPieceINSt7__cxx1112basic_stringItNS_20string16_char_traitsESaItEEEE16find_last_not_ofERKS6_m(ptr noundef nonnull align 8 dereferenceable(16) %7, ptr noundef nonnull align 8 dereferenceable(16) %8, i64 noundef -1)
  %29 = add i64 %28, 1
  br label %32

30:                                               ; preds = %22
  %31 = call noundef i64 @_ZNK4base16BasicStringPieceINSt7__cxx1112basic_stringItNS_20string16_char_traitsESaItEEEE4sizeEv(ptr noundef nonnull align 8 dereferenceable(16) %7)
  br label %32

32:                                               ; preds = %30, %27
  %33 = phi i64 [ %29, %27 ], [ %31, %30 ]
  store i64 %33, ptr %11, align 8, !tbaa !20
  %34 = load i64, ptr %10, align 8, !tbaa !20
  %35 = load i64, ptr %11, align 8, !tbaa !20
  %36 = load i64, ptr %10, align 8, !tbaa !20
  %37 = sub i64 %35, %36
  %38 = call { ptr, i64 } @_ZNK4base16BasicStringPieceINSt7__cxx1112basic_stringItNS_20string16_char_traitsESaItEEEE6substrEmm(ptr noundef nonnull align 8 dereferenceable(16) %7, i64 noundef %34, i64 noundef %37)
  %39 = getelementptr inbounds nuw { ptr, i64 }, ptr %6, i32 0, i32 0
  %40 = extractvalue { ptr, i64 } %38, 0
  store ptr %40, ptr %39, align 8
  %41 = getelementptr inbounds nuw { ptr, i64 }, ptr %6, i32 0, i32 1
  %42 = extractvalue { ptr, i64 } %38, 1
  store i64 %42, ptr %41, align 8
  call void @llvm.lifetime.end.p0(i64 8, ptr %11) #17
  call void @llvm.lifetime.end.p0(i64 8, ptr %10) #17
  %43 = load { ptr, i64 }, ptr %6, align 8
  ret { ptr, i64 } %43
}

; Function Attrs: mustprogress uwtable
define available_externally void @_ZN4base16BasicStringPieceINSt7__cxx1112basic_stringItNS_20string16_char_traitsESaItEEEEC2EPKt(ptr noundef nonnull align 8 dereferenceable(16) %0, ptr noundef %1) unnamed_addr #3 align 2 {
  %3 = alloca ptr, align 8
  %4 = alloca ptr, align 8
  store ptr %0, ptr %3, align 8, !tbaa !38
  store ptr %1, ptr %4, align 8, !tbaa !24
  %5 = load ptr, ptr %3, align 8
  %6 = getelementptr inbounds nuw %"class.base::BasicStringPiece.0", ptr %5, i32 0, i32 0
  %7 = load ptr, ptr %4, align 8, !tbaa !24
  store ptr %7, ptr %6, align 8, !tbaa !48
  %8 = getelementptr inbounds nuw %"class.base::BasicStringPiece.0", ptr %5, i32 0, i32 1
  %9 = load ptr, ptr %4, align 8, !tbaa !24
  %10 = icmp eq ptr %9, null
  br i1 %10, label %11, label %12

11:                                               ; preds = %2
  br label %15

12:                                               ; preds = %2
  %13 = load ptr, ptr %4, align 8, !tbaa !24
  %14 = call noundef i64 @_ZN4base20string16_char_traits6lengthEPKt(ptr noundef %13)
  br label %15

15:                                               ; preds = %12, %11
  %16 = phi i64 [ 0, %11 ], [ %14, %12 ]
  store i64 %16, ptr %8, align 8, !tbaa !40
  ret void
}

; Function Attrs: mustprogress uwtable
define { ptr, i64 } @_ZN4base14TrimWhitespaceENS_16BasicStringPieceINSt7__cxx1112basic_stringItNS_20string16_char_traitsESaItEEEEENS_13TrimPositionsE(ptr %0, i64 %1, i32 noundef %2) #3 {
  %4 = alloca %"class.base::BasicStringPiece.0", align 8
  %5 = alloca %"class.base::BasicStringPiece.0", align 8
  %6 = alloca i32, align 4
  %7 = alloca %"class.base::BasicStringPiece.0", align 8
  %8 = alloca %"class.base::BasicStringPiece.0", align 8
  %9 = getelementptr inbounds nuw { ptr, i64 }, ptr %5, i32 0, i32 0
  store ptr %0, ptr %9, align 8
  %10 = getelementptr inbounds nuw { ptr, i64 }, ptr %5, i32 0, i32 1
  store i64 %1, ptr %10, align 8
  store i32 %2, ptr %6, align 4, !tbaa !50
  call void @llvm.memcpy.p0.p0.i64(ptr align 8 %7, ptr align 8 %5, i64 16, i1 false), !tbaa.struct !23
  call void @_ZN4base16BasicStringPieceINSt7__cxx1112basic_stringItNS_20string16_char_traitsESaItEEEEC2EPKt(ptr noundef nonnull align 8 dereferenceable(16) %8, ptr noundef @_ZN4base16kWhitespaceUTF16E)
  %11 = load i32, ptr %6, align 4, !tbaa !50
  %12 = getelementptr inbounds nuw { ptr, i64 }, ptr %7, i32 0, i32 0
  %13 = load ptr, ptr %12, align 8
  %14 = getelementptr inbounds nuw { ptr, i64 }, ptr %7, i32 0, i32 1
  %15 = load i64, ptr %14, align 8
  %16 = getelementptr inbounds nuw { ptr, i64 }, ptr %8, i32 0, i32 0
  %17 = load ptr, ptr %16, align 8
  %18 = getelementptr inbounds nuw { ptr, i64 }, ptr %8, i32 0, i32 1
  %19 = load i64, ptr %18, align 8
  %20 = call { ptr, i64 } @_ZN4base16TrimStringPieceTINSt7__cxx1112basic_stringItNS_20string16_char_traitsESaItEEEEENS_16BasicStringPieceIT_EES8_S8_NS_13TrimPositionsE(ptr %13, i64 %15, ptr %17, i64 %19, i32 noundef %11)
  %21 = getelementptr inbounds nuw { ptr, i64 }, ptr %4, i32 0, i32 0
  %22 = extractvalue { ptr, i64 } %20, 0
  store ptr %22, ptr %21, align 8
  %23 = getelementptr inbounds nuw { ptr, i64 }, ptr %4, i32 0, i32 1
  %24 = extractvalue { ptr, i64 } %20, 1
  store i64 %24, ptr %23, align 8
  %25 = load { ptr, i64 }, ptr %4, align 8
  ret { ptr, i64 } %25
}