; Function Attrs: mustprogress uwtable
define { ptr, i64 } @_ZN4base14TrimWhitespaceENS_16BasicStringPieceINSt7__cxx1112basic_stringItNS_20string16_char_traitsESaItEEEEENS_13TrimPositionsE(ptr %0, i64 %1, i32 noundef %2) local_unnamed_addr #3 {
  %4 = alloca %"class.base::BasicStringPiece.0", align 8
  %5 = alloca %"class.base::BasicStringPiece.0", align 8
  %6 = tail call noundef i64 @_ZN4base6c16lenEPKt(ptr noundef nonnull @_ZN4base16kWhitespaceUTF16E)
  call void @llvm.lifetime.start.p0(i64 16, ptr nonnull %4)
  call void @llvm.lifetime.start.p0(i64 16, ptr nonnull %5)
  store ptr %0, ptr %4, align 8
  %7 = getelementptr inbounds nuw i8, ptr %4, i64 8
  store i64 %1, ptr %7, align 8
  store ptr @_ZN4base16kWhitespaceUTF16E, ptr %5, align 8
  %8 = getelementptr inbounds nuw i8, ptr %5, i64 8
  store i64 %6, ptr %8, align 8
  %9 = and i32 %2, 1
  %.not.i = icmp eq i32 %9, 0
  br i1 %.not.i, label %12, label %10

10:                                               ; preds = %3
  %11 = call noundef i64 @_ZN4base8internal17find_first_not_ofERKNS_16BasicStringPieceINSt7__cxx1112basic_stringItNS_20string16_char_traitsESaItEEEEES9_m(ptr noundef nonnull align 8 dereferenceable(16) %4, ptr noundef nonnull align 8 dereferenceable(16) %5, i64 noundef 0)
  br label %12

12:                                               ; preds = %10, %3
  %13 = phi i64 [ %11, %10 ], [ 0, %3 ]
  %14 = and i32 %2, 2
  %.not5.i = icmp eq i32 %14, 0
  br i1 %.not5.i, label %18, label %15

15:                                               ; preds = %12
  %16 = call noundef i64 @_ZN4base8internal16find_last_not_ofERKNS_16BasicStringPieceINSt7__cxx1112basic_stringItNS_20string16_char_traitsESaItEEEEES9_m(ptr noundef nonnull align 8 dereferenceable(16) %4, ptr noundef nonnull align 8 dereferenceable(16) %5, i64 noundef -1)
  %17 = add i64 %16, 1
  br label %_ZN4base16TrimStringPieceTINSt7__cxx1112basic_stringItNS_20string16_char_traitsESaItEEEEENS_16BasicStringPieceIT_EES8_S8_NS_13TrimPositionsE.exit

18:                                               ; preds = %12
  %19 = load i64, ptr %7, align 8, !tbaa !62
  br label %_ZN4base16TrimStringPieceTINSt7__cxx1112basic_stringItNS_20string16_char_traitsESaItEEEEENS_16BasicStringPieceIT_EES8_S8_NS_13TrimPositionsE.exit

_ZN4base16TrimStringPieceTINSt7__cxx1112basic_stringItNS_20string16_char_traitsESaItEEEEENS_16BasicStringPieceIT_EES8_S8_NS_13TrimPositionsE.exit: ; preds = %15, %18
  %20 = phi i64 [ %17, %15 ], [ %19, %18 ]
  %21 = sub i64 %20, %13
  %22 = call { ptr, i64 } @_ZN4base8internal6substrERKNS_16BasicStringPieceINSt7__cxx1112basic_stringItNS_20string16_char_traitsESaItEEEEEmm(ptr noundef nonnull align 8 dereferenceable(16) %4, i64 noundef %13, i64 noundef %21)
  call void @llvm.lifetime.end.p0(i64 16, ptr nonnull %4)
  call void @llvm.lifetime.end.p0(i64 16, ptr nonnull %5)
  ret { ptr, i64 } %22
}